target datalayout = "e-m:e-p270:32:32-p271:32:32-p272:64:64-i64:64-i128:128-f80:128-n8:16:32:64-S128"
target triple = "x86_64-pc-linux-gnu"

%struct.Aig_Man_t_ = type { ptr, ptr, ptr, ptr, ptr, ptr, ptr, %struct.Aig_Obj_t_, i32, i32, i32, i32, i32, i32, [7 x i32], i32, ptr, i32, ptr, i32, ptr, i32, i32, i32, ptr, i32, i32, i32, i32, i32, ptr, ptr, i32, ptr, ptr, i32, ptr, ptr, i32, i32, i32, ptr, ptr, ptr, ptr, ptr, ptr, ptr, ptr, ptr, ptr, ptr, ptr, ptr, ptr, i32, ptr, ptr, ptr, ptr, i32, i64, i64, i64, ptr, ptr }
%struct.Aig_Obj_t_ = type { %union.anon, ptr, ptr, i64, i32, i32, %union.anon.0 }
%union.anon = type { ptr }
%union.anon.0 = type { ptr }
%struct.Vec_Ptr_t_ = type { i32, i32, ptr }

; Function Attrs: inlinehint nounwind uwtable
define internal i32 @Aig_IsComplement(ptr noundef %0) #2 {
  %2 = alloca ptr, align 8
  store ptr %0, ptr %2, align 8, !tbaa !25
  %3 = load ptr, ptr %2, align 8, !tbaa !25
  %4 = ptrtoint ptr %3 to i64
  %5 = and i64 %4, 1
  %6 = trunc i64 %5 to i32
  ret i32 %6
}

; Function Attrs: inlinehint nounwind uwtable
define internal i32 @Aig_ObjIsCo(ptr noundef %0) #2 {
  %2 = alloca ptr, align 8
  store ptr %0, ptr %2, align 8, !tbaa !25
  %3 = load ptr, ptr %2, align 8, !tbaa !25
  %4 = getelementptr inbounds nuw %struct.Aig_Obj_t_, ptr %3, i32 0, i32 3
  %5 = load i64, ptr %4, align 8
  %6 = and i64 %5, 7
  %7 = trunc i64 %6 to i32
  %8 = icmp eq i32 %7, 3
  %9 = zext i1 %8 to i32
  ret i32 %9
}

; Function Attrs: inlinehint nounwind uwtable
define internal i32 @Aig_ObjFaninC1(ptr noundef %0) #2 {
  %2 = alloca ptr, align 8
  store ptr %0, ptr %2, align 8, !tbaa !25
  %3 = load ptr, ptr %2, align 8, !tbaa !25
  %4 = getelementptr inbounds nuw %struct.Aig_Obj_t_, ptr %3, i32 0, i32 2
  %5 = load ptr, ptr %4, align 8, !tbaa !45
  %6 = call i32 @Aig_IsComplement(ptr noundef %5)
  ret i32 %6
}

; Function Attrs: inlinehint nounwind uwtable
define internal i32 @Aig_ObjFaninC0(ptr noundef %0) #2 {
  %2 = alloca ptr, align 8
  store ptr %0, ptr %2, align 8, !tbaa !25
  %3 = load ptr, ptr %2, align 8, !tbaa !25
  %4 = getelementptr inbounds nuw %struct.Aig_Obj_t_, ptr %3, i32 0, i32 1
  %5 = load ptr, ptr %4, align 8, !tbaa !41
  %6 = call i32 @Aig_IsComplement(ptr noundef %5)
  ret i32 %6
}

; Function Attrs: inlinehint nounwind uwtable
define internal i32 @Aig_ObjIsNode(ptr noundef %0) #2 {
  %2 = alloca ptr, align 8
  store ptr %0, ptr %2, align 8, !tbaa !25
  %3 = load ptr, ptr %2, align 8, !tbaa !25
  %4 = getelementptr inbounds nuw %struct.Aig_Obj_t_, ptr %3, i32 0, i32 3
  %5 = load i64, ptr %4, align 8
  %6 = and i64 %5, 7
  %7 = trunc i64 %6 to i32
  %8 = icmp eq i32 %7, 5
  br i1 %8, label %16, label %9

9:                                                ; preds = %1
  %10 = load ptr, ptr %2, align 8, !tbaa !25
  %11 = getelementptr inbounds nuw %struct.Aig_Obj_t_, ptr %10, i32 0, i32 3
  %12 = load i64, ptr %11, align 8
  %13 = and i64 %12, 7
  %14 = trunc i64 %13 to i32
  %15 = icmp eq i32 %14, 6
  br label %16

16:                                               ; preds = %9, %1
  %17 = phi i1 [ true, %1 ], [ %15, %9 ]
  %18 = zext i1 %17 to i32
  ret i32 %18
}

; Function Attrs: inlinehint nounwind uwtable
define internal ptr @Vec_PtrEntry(ptr noundef %0, i32 noundef %1) #2 {
  %3 = alloca ptr, align 8
  %4 = alloca i32, align 4
  store ptr %0, ptr %3, align 8, !tbaa !10
  store i32 %1, ptr %4, align 4, !tbaa !12
  %5 = load ptr, ptr %3, align 8, !tbaa !10
  %6 = getelementptr inbounds nuw %struct.Vec_Ptr_t_, ptr %5, i32 0, i32 2
  %7 = load ptr, ptr %6, align 8, !tbaa !39
  %8 = load i32, ptr %4, align 4, !tbaa !12
  %9 = sext i32 %8 to i64
  %10 = getelementptr inbounds ptr, ptr %7, i64 %9
  %11 = load ptr, ptr %10, align 8, !tbaa !40
  ret ptr %11
}

; Function Attrs: inlinehint nounwind uwtable
define internal i32 @Vec_PtrSize(ptr noundef %0) #2 {
  %2 = alloca ptr, align 8
  store ptr %0, ptr %2, align 8, !tbaa !10
  %3 = load ptr, ptr %2, align 8, !tbaa !10
  %4 = getelementptr inbounds nuw %struct.Vec_Ptr_t_, ptr %3, i32 0, i32 1
  %5 = load i32, ptr %4, align 4, !tbaa !36
  ret i32 %5
}

; Function Attrs: nounwind uwtable
define i32 @Iso_ManNegEdgeNum(ptr noundef %0) #0 {
  %2 = alloca i32, align 4
  %3 = alloca ptr, align 8
  %4 = alloca ptr, align 8
  %5 = alloca i32, align 4
  %6 = alloca i32, align 4
  %7 = alloca i32, align 4
  store ptr %0, ptr %3, align 8, !tbaa !3
  call void @llvm.lifetime.start.p0(i64 8, ptr %4) #9
  call void @llvm.lifetime.start.p0(i64 4, ptr %5) #9
  call void @llvm.lifetime.start.p0(i64 4, ptr %6) #9
  store i32 0, ptr %6, align 4, !tbaa !12
  %8 = load ptr, ptr %3, align 8, !tbaa !3
  %9 = getelementptr inbounds nuw %struct.Aig_Man_t_, ptr %8, i32 0, i32 60
  %10 = load i32, ptr %9, align 8, !tbaa !59
  %11 = icmp sgt i32 %10, 0
  br i1 %11, label %12, label %16

12:                                               ; preds = %1
  %13 = load ptr, ptr %3, align 8, !tbaa !3
  %14 = getelementptr inbounds nuw %struct.Aig_Man_t_, ptr %13, i32 0, i32 60
  %15 = load i32, ptr %14, align 8, !tbaa !59
  store i32 %15, ptr %2, align 4
  store i32 1, ptr %7, align 4
  br label %68

16:                                               ; preds = %1
  store i32 0, ptr %5, align 4, !tbaa !12
  br label %17

17:                                               ; preds = %61, %16
  %18 = load i32, ptr %5, align 4, !tbaa !12
  %19 = load ptr, ptr %3, align 8, !tbaa !3
  %20 = getelementptr inbounds nuw %struct.Aig_Man_t_, ptr %19, i32 0, i32 4
  %21 = load ptr, ptr %20, align 8, !tbaa !57
  %22 = call i32 @Vec_PtrSize(ptr noundef %21)
  %23 = icmp slt i32 %18, %22
  br i1 %23, label %24, label %30

24:                                               ; preds = %17
  %25 = load ptr, ptr %3, align 8, !tbaa !3
  %26 = getelementptr inbounds nuw %struct.Aig_Man_t_, ptr %25, i32 0, i32 4
  %27 = load ptr, ptr %26, align 8, !tbaa !57
  %28 = load i32, ptr %5, align 4, !tbaa !12
  %29 = call ptr @Vec_PtrEntry(ptr noundef %27, i32 noundef %28)
  store ptr %29, ptr %4, align 8, !tbaa !25
  br label %30

30:                                               ; preds = %24, %17
  %31 = phi i1 [ false, %17 ], [ true, %24 ]
  br i1 %31, label %32, label %64

32:                                               ; preds = %30
  %33 = load ptr, ptr %4, align 8, !tbaa !25
  %34 = icmp eq ptr %33, null
  br i1 %34, label %35, label %36

35:                                               ; preds = %32
  br label %60

36:                                               ; preds = %32
  %37 = load ptr, ptr %4, align 8, !tbaa !25
  %38 = call i32 @Aig_ObjIsNode(ptr noundef %37)
  %39 = icmp ne i32 %38, 0
  br i1 %39, label %40, label %49

40:                                               ; preds = %36
  %41 = load ptr, ptr %4, align 8, !tbaa !25
  %42 = call i32 @Aig_ObjFaninC0(ptr noundef %41)
  %43 = load i32, ptr %6, align 4, !tbaa !12
  %44 = add nsw i32 %43, %42
  store i32 %44, ptr %6, align 4, !tbaa !12
  %45 = load ptr, ptr %4, align 8, !tbaa !25
  %46 = call i32 @Aig_ObjFaninC1(ptr noundef %45)
  %47 = load i32, ptr %6, align 4, !tbaa !12
  %48 = add nsw i32 %47, %46
  store i32 %48, ptr %6, align 4, !tbaa !12
  br label %59

49:                                               ; preds = %36
  %50 = load ptr, ptr %4, align 8, !tbaa !25
  %51 = call i32 @Aig_ObjIsCo(ptr noundef %50)
  %52 = icmp ne i32 %51, 0
  br i1 %52, label %53, label %58

53:                                               ; preds = %49
  %54 = load ptr, ptr %4, align 8, !tbaa !25
  %55 = call i32 @Aig_ObjFaninC0(ptr noundef %54)
  %56 = load i32, ptr %6, align 4, !tbaa !12
  %57 = add nsw i32 %56, %55
  store i32 %57, ptr %6, align 4, !tbaa !12
  br label %58

58:                                               ; preds = %53, %49
  br label %59

59:                                               ; preds = %58, %40
  br label %60

60:                                               ; preds = %59, %35
  br label %61

61:                                               ; preds = %60
  %62 = load i32, ptr %5, align 4, !tbaa !12
  %63 = add nsw i32 %62, 1
  store i32 %63, ptr %5, align 4, !tbaa !12
  br label %17, !llvm.loop !60

64:                                               ; preds = %30
  %65 = load i32, ptr %6, align 4, !tbaa !12
  %66 = load ptr, ptr %3, align 8, !tbaa !3
  %67 = getelementptr inbounds nuw %struct.Aig_Man_t_, ptr %66, i32 0, i32 60
  store i32 %65, ptr %67, align 8, !tbaa !59
  store i32 %65, ptr %2, align 4
  store i32 1, ptr %7, align 4
  br label %68

68:                                               ; preds = %64, %12
  call void @llvm.lifetime.end.p0(i64 4, ptr %6) #9
  call void @llvm.lifetime.end.p0(i64 4, ptr %5) #9
  call void @llvm.lifetime.end.p0(i64 8, ptr %4) #9
  %69 = load i32, ptr %2, align 4
  ret i32 %69
}