; Function Attrs: nofree norecurse nosync nounwind memory(read, argmem: readwrite, inaccessiblemem: none) uwtable
define i32 @Iso_ManNegEdgeNum(ptr noundef captures(none) %0) local_unnamed_addr #5 {
  %2 = getelementptr inbounds nuw i8, ptr %0, i64 480
  %3 = load i32, ptr %2, align 8, !tbaa !54
  %4 = icmp sgt i32 %3, 0
  br i1 %4, label %39, label %.preheader

.preheader:                                       ; preds = %1
  %5 = getelementptr inbounds nuw i8, ptr %0, i64 32
  %6 = load ptr, ptr %5, align 8, !tbaa !51
  %7 = getelementptr i8, ptr %6, i64 4
  %.val25 = load i32, ptr %7, align 4, !tbaa !26
  %8 = icmp sgt i32 %.val25, 0
  br i1 %8, label %.lr.ph, label %.critedge

.lr.ph:                                           ; preds = %.preheader
  %9 = getelementptr i8, ptr %6, i64 8
  %.val = load ptr, ptr %9, align 8, !tbaa !29
  %wide.trip.count = zext nneg i32 %.val25 to i64
  br label %10

10:                                               ; preds = %.lr.ph, %38
  %indvars.iv = phi i64 [ 0, %.lr.ph ], [ %indvars.iv.next, %38 ]
  %.030 = phi i32 [ 0, %.lr.ph ], [ %.1, %38 ]
  %11 = getelementptr inbounds nuw ptr, ptr %.val, i64 %indvars.iv
  %12 = load ptr, ptr %11, align 8, !tbaa !31
  %13 = icmp eq ptr %12, null
  br i1 %13, label %38, label %14

14:                                               ; preds = %10
  %15 = getelementptr i8, ptr %12, i64 24
  %.val26 = load i64, ptr %15, align 8
  %16 = trunc i64 %.val26 to i32
  %17 = and i32 %16, 7
  %18 = add nsw i32 %17, -7
  %narrow.i = icmp ult i32 %18, -2
  br i1 %narrow.i, label %30, label %19

19:                                               ; preds = %14
  %20 = getelementptr i8, ptr %12, i64 8
  %.val24 = load ptr, ptr %20, align 8, !tbaa !32
  %21 = ptrtoint ptr %.val24 to i64
  %22 = trunc i64 %21 to i32
  %23 = and i32 %22, 1
  %24 = add nsw i32 %23, %.030
  %25 = getelementptr i8, ptr %12, i64 16
  %.val27 = load ptr, ptr %25, align 8, !tbaa !41
  %26 = ptrtoint ptr %.val27 to i64
  %27 = trunc i64 %26 to i32
  %28 = and i32 %27, 1
  %29 = add nsw i32 %24, %28
  br label %38

30:                                               ; preds = %14
  %31 = and i64 %.val26, 7
  %.not = icmp eq i64 %31, 3
  br i1 %.not, label %32, label %38

32:                                               ; preds = %30
  %33 = getelementptr i8, ptr %12, i64 8
  %.val23 = load ptr, ptr %33, align 8, !tbaa !32
  %34 = ptrtoint ptr %.val23 to i64
  %35 = trunc i64 %34 to i32
  %36 = and i32 %35, 1
  %37 = add nsw i32 %36, %.030
  br label %38

38:                                               ; preds = %10, %30, %32, %19
  %.1 = phi i32 [ %.030, %10 ], [ %29, %19 ], [ %37, %32 ], [ %.030, %30 ]
  %indvars.iv.next = add nuw nsw i64 %indvars.iv, 1
  %exitcond.not = icmp eq i64 %indvars.iv.next, %wide.trip.count
  br i1 %exitcond.not, label %.critedge, label %10, !llvm.loop !55

.critedge:                                        ; preds = %38, %.preheader
  %.0.lcssa = phi i32 [ 0, %.preheader ], [ %.1, %38 ]
  store i32 %.0.lcssa, ptr %2, align 8, !tbaa !54
  br label %39

39:                                               ; preds = %1, %.critedge
  %.019 = phi i32 [ %.0.lcssa, %.critedge ], [ %3, %1 ]
  ret i32 %.019
}